target datalayout = "e-m:e-p270:32:32-p271:32:32-p272:64:64-i64:64-i128:128-f80:128-n8:16:32:64-S128"
target triple = "x86_64-pc-linux-gnu"

; Function Attrs: nounwind uwtable
define internal void @sbr_qmf_deint_neg_c(ptr noundef %0, ptr noundef %1) #1 {
  %3 = alloca ptr, align 8
  %4 = alloca ptr, align 8
  %5 = alloca i32, align 4
  store ptr %0, ptr %3, align 8, !tbaa !21
  store ptr %1, ptr %4, align 8, !tbaa !21
  call void @llvm.lifetime.start.p0(i64 4, ptr %5) #8
  store i32 0, ptr %5, align 4, !tbaa !23
  br label %6

6:                                                ; preds = %38, %2
  %7 = load i32, ptr %5, align 4, !tbaa !23
  %8 = icmp slt i32 %7, 32
  br i1 %8, label %9, label %41

9:                                                ; preds = %6
  %10 = load ptr, ptr %4, align 8, !tbaa !21
  %11 = load i32, ptr %5, align 4, !tbaa !23
  %12 = mul nsw i32 2, %11
  %13 = sub nsw i32 63, %12
  %14 = sext i32 %13 to i64
  %15 = getelementptr inbounds i32, ptr %10, i64 %14
  %16 = load i32, ptr %15, align 4, !tbaa !23
  %17 = add i32 16, %16
  %18 = ashr i32 %17, 5
  %19 = load ptr, ptr %3, align 8, !tbaa !21
  %20 = load i32, ptr %5, align 4, !tbaa !23
  %21 = sext i32 %20 to i64
  %22 = getelementptr inbounds i32, ptr %19, i64 %21
  store i32 %18, ptr %22, align 4, !tbaa !23
  %23 = load ptr, ptr %4, align 8, !tbaa !21
  %24 = load i32, ptr %5, align 4, !tbaa !23
  %25 = mul nsw i32 2, %24
  %26 = sub nsw i32 63, %25
  %27 = sub nsw i32 %26, 1
  %28 = sext i32 %27 to i64
  %29 = getelementptr inbounds i32, ptr %23, i64 %28
  %30 = load i32, ptr %29, align 4, !tbaa !23
  %31 = sub i32 16, %30
  %32 = ashr i32 %31, 5
  %33 = load ptr, ptr %3, align 8, !tbaa !21
  %34 = load i32, ptr %5, align 4, !tbaa !23
  %35 = sub nsw i32 63, %34
  %36 = sext i32 %35 to i64
  %37 = getelementptr inbounds i32, ptr %33, i64 %36
  store i32 %32, ptr %37, align 4, !tbaa !23
  br label %38

38:                                               ; preds = %9
  %39 = load i32, ptr %5, align 4, !tbaa !23
  %40 = add nsw i32 %39, 1
  store i32 %40, ptr %5, align 4, !tbaa !23
  br label %6, !llvm.loop !36

41:                                               ; preds = %6
  call void @llvm.lifetime.end.p0(i64 4, ptr %5) #8
  ret void
}