; Function Attrs: nofree norecurse nosync nounwind memory(argmem: readwrite) uwtable
define internal void @sbr_qmf_deint_neg_c(ptr noundef writeonly captures(none) %0, ptr noundef readonly captures(none) %1) #1 {
  br label %3

3:                                                ; preds = %2, %3
  %indvars.iv = phi i64 [ 0, %2 ], [ %indvars.iv.next, %3 ]
  %4 = shl nuw nsw i64 %indvars.iv, 1
  %5 = sub nuw nsw i64 63, %4
  %6 = getelementptr inbounds nuw i32, ptr %1, i64 %5
  %7 = load i32, ptr %6, align 4, !tbaa !19
  %8 = add i32 %7, 16
  %9 = ashr i32 %8, 5
  %10 = getelementptr inbounds nuw i32, ptr %0, i64 %indvars.iv
  store i32 %9, ptr %10, align 4, !tbaa !19
  %11 = sub nuw nsw i64 62, %4
  %12 = getelementptr inbounds nuw i32, ptr %1, i64 %11
  %13 = load i32, ptr %12, align 4, !tbaa !19
  %14 = sub i32 16, %13
  %15 = ashr i32 %14, 5
  %16 = sub nuw nsw i64 63, %indvars.iv
  %17 = getelementptr inbounds nuw i32, ptr %0, i64 %16
  store i32 %15, ptr %17, align 4, !tbaa !19
  %indvars.iv.next = add nuw nsw i64 %indvars.iv, 1
  %exitcond.not = icmp eq i64 %indvars.iv.next, 32
  br i1 %exitcond.not, label %18, label %3, !llvm.loop !30

18:                                               ; preds = %3
  ret void
}